target datalayout = "e-m:e-p270:32:32-p271:32:32-p272:64:64-i64:64-i128:128-f80:128-n8:16:32:64-S128"
target triple = "x86_64-pc-linux-gnu"

%"class.Luau::Variant.14" = type { i32, [4 x i8], [8 x i8] }
%"struct.Luau::NotNull" = type { ptr }
%"struct.Luau::(anonymous namespace)::TraversalState" = type <{ %"class.Luau::Variant.14", %"struct.Luau::NotNull", i32, [4 x i8] }>

@_ZN4Luau7VariantIJPKNS_4TypeEPKNS_11TypePackVarEEE9tableDtorE = linkonce_odr dso_local constant [2 x ptr] [ptr @_ZN4Luau7VariantIJPKNS_4TypeEPKNS_11TypePackVarEEE6fnDtorIS3_EEvPv, ptr @_ZN4Luau7VariantIJPKNS_4TypeEPKNS_11TypePackVarEEE6fnDtorIS6_EEvPv], comdat, align 16
@_ZN4Luau7VariantIJPKNS_4TypeEPKNS_11TypePackVarEEE9tableMoveE = linkonce_odr dso_local constant [2 x ptr] [ptr @_ZN4Luau7VariantIJPKNS_4TypeEPKNS_11TypePackVarEEE6fnMoveIS3_EEvPvS9_, ptr @_ZN4Luau7VariantIJPKNS_4TypeEPKNS_11TypePackVarEEE6fnMoveIS6_EEvPvS9_], comdat, align 16

; Function Attrs: mustprogress nounwind uwtable
define linkonce_odr dso_local void @_ZN4Luau7VariantIJPKNS_4TypeEPKNS_11TypePackVarEEED2Ev(ptr noundef nonnull align 8 dereferenceable(16) %0) unnamed_addr #1 comdat align 2 personality ptr @__gxx_personality_v0 {
  %2 = alloca ptr, align 8
  store ptr %0, ptr %2, align 8, !tbaa !95
  %3 = load ptr, ptr %2, align 8
  %4 = getelementptr inbounds nuw %"class.Luau::Variant.14", ptr %3, i32 0, i32 0
  %5 = load i32, ptr %4, align 8, !tbaa !176
  %6 = sext i32 %5 to i64
  %7 = getelementptr inbounds [2 x ptr], ptr @_ZN4Luau7VariantIJPKNS_4TypeEPKNS_11TypePackVarEEE9tableDtorE, i64 0, i64 %6
  %8 = load ptr, ptr %7, align 8, !tbaa !65
  %9 = getelementptr inbounds nuw %"class.Luau::Variant.14", ptr %3, i32 0, i32 2
  invoke void %8(ptr noundef %9)
          to label %10 unwind label %11

10:                                               ; preds = %1
  ret void

11:                                               ; preds = %1
  %12 = landingpad { ptr, i32 }
          catch ptr null
  %13 = extractvalue { ptr, i32 } %12, 0
  call void @__clang_call_terminate(ptr %13) #18
  unreachable
}

; Function Attrs: mustprogress uwtable
define linkonce_odr dso_local noundef nonnull align 8 dereferenceable(16) ptr @_ZN4Luau7VariantIJPKNS_4TypeEPKNS_11TypePackVarEEEaSEOS7_(ptr noundef nonnull align 8 dereferenceable(16) %0, ptr noundef nonnull align 8 dereferenceable(16) %1) #5 comdat align 2 {
  %3 = alloca ptr, align 8
  %4 = alloca ptr, align 8
  store ptr %0, ptr %3, align 8, !tbaa !95
  store ptr %1, ptr %4, align 8, !tbaa !95
  %5 = load ptr, ptr %3, align 8
  %6 = load ptr, ptr %4, align 8, !tbaa !95
  %7 = icmp ne ptr %5, %6
  br i1 %7, label %8, label %27

8:                                                ; preds = %2
  %9 = getelementptr inbounds nuw %"class.Luau::Variant.14", ptr %5, i32 0, i32 0
  %10 = load i32, ptr %9, align 8, !tbaa !176
  %11 = sext i32 %10 to i64
  %12 = getelementptr inbounds [2 x ptr], ptr @_ZN4Luau7VariantIJPKNS_4TypeEPKNS_11TypePackVarEEE9tableDtorE, i64 0, i64 %11
  %13 = load ptr, ptr %12, align 8, !tbaa !65
  %14 = getelementptr inbounds nuw %"class.Luau::Variant.14", ptr %5, i32 0, i32 2
  call void %13(ptr noundef %14)
  %15 = load ptr, ptr %4, align 8, !tbaa !95
  %16 = getelementptr inbounds nuw %"class.Luau::Variant.14", ptr %15, i32 0, i32 0
  %17 = load i32, ptr %16, align 8, !tbaa !176
  %18 = getelementptr inbounds nuw %"class.Luau::Variant.14", ptr %5, i32 0, i32 0
  store i32 %17, ptr %18, align 8, !tbaa !176
  %19 = getelementptr inbounds nuw %"class.Luau::Variant.14", ptr %5, i32 0, i32 0
  %20 = load i32, ptr %19, align 8, !tbaa !176
  %21 = sext i32 %20 to i64
  %22 = getelementptr inbounds [2 x ptr], ptr @_ZN4Luau7VariantIJPKNS_4TypeEPKNS_11TypePackVarEEE9tableMoveE, i64 0, i64 %21
  %23 = load ptr, ptr %22, align 8, !tbaa !65
  %24 = getelementptr inbounds nuw %"class.Luau::Variant.14", ptr %5, i32 0, i32 2
  %25 = load ptr, ptr %4, align 8, !tbaa !95
  %26 = getelementptr inbounds nuw %"class.Luau::Variant.14", ptr %25, i32 0, i32 2
  call void %23(ptr noundef %24, ptr noundef %26)
  br label %27

27:                                               ; preds = %8, %2
  ret ptr %5
}

; Function Attrs: mustprogress nounwind uwtable
define linkonce_odr dso_local void @_ZN4Luau7VariantIJPKNS_4TypeEPKNS_11TypePackVarEEEC2IS3_EEOT_PNSt9enable_ifIXgecl9getTypeIdIS9_EELi0EEvE4typeE(ptr noundef nonnull align 8 dereferenceable(16) %0, ptr noundef nonnull align 8 dereferenceable(8) %1, ptr noundef %2) unnamed_addr #1 comdat align 2 {
  %4 = alloca ptr, align 8
  %5 = alloca ptr, align 8
  %6 = alloca ptr, align 8
  %7 = alloca i32, align 4
  store ptr %0, ptr %4, align 8, !tbaa !95
  store ptr %1, ptr %5, align 8, !tbaa !99
  store ptr %2, ptr %6, align 8, !tbaa !65
  %8 = load ptr, ptr %4, align 8
  call void @llvm.lifetime.start.p0(i64 4, ptr %7) #3
  store i32 0, ptr %7, align 4, !tbaa !9
  %9 = getelementptr inbounds nuw %"class.Luau::Variant.14", ptr %8, i32 0, i32 0
  store i32 0, ptr %9, align 8, !tbaa !176
  %10 = getelementptr inbounds nuw %"class.Luau::Variant.14", ptr %8, i32 0, i32 2
  %11 = load ptr, ptr %5, align 8, !tbaa !99
  %12 = load ptr, ptr %11, align 8, !tbaa !72
  store ptr %12, ptr %10, align 8, !tbaa !72
  call void @llvm.lifetime.end.p0(i64 4, ptr %7) #3
  ret void
}

; Function Attrs: mustprogress uwtable
define internal void @_ZN4Luau12_GLOBAL__N_114TraversalState13updateCurrentEPKNS_4TypeE(ptr noundef nonnull align 8 dereferenceable(28) %0, ptr noundef %1) #5 align 2 personality ptr @__gxx_personality_v0 {
  %3 = alloca ptr, align 8
  %4 = alloca ptr, align 8
  %5 = alloca %"class.Luau::Variant.14", align 8
  %6 = alloca ptr, align 8
  %7 = alloca ptr, align 8
  %8 = alloca i32, align 4
  store ptr %0, ptr %3, align 8, !tbaa !87
  store ptr %1, ptr %4, align 8, !tbaa !72
  %9 = load ptr, ptr %3, align 8
  call void @llvm.lifetime.start.p0(i64 16, ptr %5) #3
  call void @llvm.lifetime.start.p0(i64 8, ptr %6) #3
  %10 = load ptr, ptr %4, align 8, !tbaa !72
  %11 = call noundef ptr @_ZN4Luau6followEPKNS_4TypeE(ptr noundef %10)
  store ptr %11, ptr %6, align 8, !tbaa !72
  call void @_ZN4Luau7VariantIJPKNS_4TypeEPKNS_11TypePackVarEEEC2IS3_EEOT_PNSt9enable_ifIXgecl9getTypeIdIS9_EELi0EEvE4typeE(ptr noundef nonnull align 8 dereferenceable(16) %5, ptr noundef nonnull align 8 dereferenceable(8) %6, ptr noundef null)
  %12 = getelementptr inbounds nuw %"struct.Luau::(anonymous namespace)::TraversalState", ptr %9, i32 0, i32 0
  %13 = invoke noundef nonnull align 8 dereferenceable(16) ptr @_ZN4Luau7VariantIJPKNS_4TypeEPKNS_11TypePackVarEEEaSEOS7_(ptr noundef nonnull align 8 dereferenceable(16) %12, ptr noundef nonnull align 8 dereferenceable(16) %5)
          to label %14 unwind label %15

14:                                               ; preds = %2
  call void @_ZN4Luau7VariantIJPKNS_4TypeEPKNS_11TypePackVarEEED2Ev(ptr noundef nonnull align 8 dereferenceable(16) %5) #3
  call void @llvm.lifetime.end.p0(i64 8, ptr %6) #3
  call void @llvm.lifetime.end.p0(i64 16, ptr %5) #3
  ret void

15:                                               ; preds = %2
  %16 = landingpad { ptr, i32 }
          cleanup
  %17 = extractvalue { ptr, i32 } %16, 0
  store ptr %17, ptr %7, align 8
  %18 = extractvalue { ptr, i32 } %16, 1
  store i32 %18, ptr %8, align 4
  call void @_ZN4Luau7VariantIJPKNS_4TypeEPKNS_11TypePackVarEEED2Ev(ptr noundef nonnull align 8 dereferenceable(16) %5) #3
  call void @llvm.lifetime.end.p0(i64 8, ptr %6) #3
  call void @llvm.lifetime.end.p0(i64 16, ptr %5) #3
  br label %19

19:                                               ; preds = %15
  %20 = load ptr, ptr %7, align 8
  %21 = load i32, ptr %8, align 4
  %22 = insertvalue { ptr, i32 } poison, ptr %20, 0
  %23 = insertvalue { ptr, i32 } %22, i32 %21, 1
  resume { ptr, i32 } %23
}