; Function Attrs: mustprogress uwtable
define internal fastcc void @_ZN4Luau12_GLOBAL__N_114TraversalState13updateCurrentEPKNS_4TypeE(ptr noundef nonnull align 8 dereferenceable(28) %0, ptr noundef %1) unnamed_addr #8 align 2 personality ptr @__gxx_personality_v0 {
  %3 = alloca %"class.Luau::Variant.14", align 8
  call void @llvm.lifetime.start.p0(i64 16, ptr nonnull %3) #29
  %4 = tail call noundef ptr @_ZN4Luau6followEPKNS_4TypeE(ptr noundef %1)
  store i32 0, ptr %3, align 8, !tbaa !69
  %5 = getelementptr inbounds nuw i8, ptr %3, i64 8
  store ptr %4, ptr %5, align 8, !tbaa !71
  %.not.i = icmp eq ptr %0, %3
  br i1 %.not.i, label %_ZN4Luau7VariantIJPKNS_4TypeEPKNS_11TypePackVarEEEaSEOS7_.exit, label %6

6:                                                ; preds = %2
  %7 = load i32, ptr %0, align 8, !tbaa !69
  %8 = sext i32 %7 to i64
  %9 = getelementptr inbounds [2 x ptr], ptr @_ZN4Luau7VariantIJPKNS_4TypeEPKNS_11TypePackVarEEE9tableDtorE, i64 0, i64 %8
  %10 = load ptr, ptr %9, align 8, !tbaa !14
  %11 = getelementptr inbounds nuw i8, ptr %0, i64 8
  invoke void %10(ptr noundef nonnull %11)
          to label %.noexc unwind label %23

.noexc:                                           ; preds = %6
  %12 = load i32, ptr %3, align 8, !tbaa !69
  store i32 %12, ptr %0, align 8, !tbaa !69
  %13 = sext i32 %12 to i64
  %14 = getelementptr inbounds [2 x ptr], ptr @_ZN4Luau7VariantIJPKNS_4TypeEPKNS_11TypePackVarEEE9tableMoveE, i64 0, i64 %13
  %15 = load ptr, ptr %14, align 8, !tbaa !14
  invoke void %15(ptr noundef nonnull %11, ptr noundef nonnull %5)
          to label %.noexc._ZN4Luau7VariantIJPKNS_4TypeEPKNS_11TypePackVarEEEaSEOS7_.exit_crit_edge unwind label %23

.noexc._ZN4Luau7VariantIJPKNS_4TypeEPKNS_11TypePackVarEEEaSEOS7_.exit_crit_edge: ; preds = %.noexc
  %.pre = load i32, ptr %3, align 8, !tbaa !69
  %16 = sext i32 %.pre to i64
  br label %_ZN4Luau7VariantIJPKNS_4TypeEPKNS_11TypePackVarEEEaSEOS7_.exit

_ZN4Luau7VariantIJPKNS_4TypeEPKNS_11TypePackVarEEEaSEOS7_.exit: ; preds = %.noexc._ZN4Luau7VariantIJPKNS_4TypeEPKNS_11TypePackVarEEEaSEOS7_.exit_crit_edge, %2
  %17 = phi i64 [ %16, %.noexc._ZN4Luau7VariantIJPKNS_4TypeEPKNS_11TypePackVarEEEaSEOS7_.exit_crit_edge ], [ 0, %2 ]
  %18 = getelementptr inbounds [2 x ptr], ptr @_ZN4Luau7VariantIJPKNS_4TypeEPKNS_11TypePackVarEEE9tableDtorE, i64 0, i64 %17
  %19 = load ptr, ptr %18, align 8, !tbaa !14
  invoke void %19(ptr noundef nonnull %5)
          to label %_ZN4Luau7VariantIJPKNS_4TypeEPKNS_11TypePackVarEEED2Ev.exit unwind label %20

20:                                               ; preds = %_ZN4Luau7VariantIJPKNS_4TypeEPKNS_11TypePackVarEEEaSEOS7_.exit
  %21 = landingpad { ptr, i32 }
          catch ptr null
  %22 = extractvalue { ptr, i32 } %21, 0
  call void @__clang_call_terminate(ptr %22) #27
  unreachable

_ZN4Luau7VariantIJPKNS_4TypeEPKNS_11TypePackVarEEED2Ev.exit: ; preds = %_ZN4Luau7VariantIJPKNS_4TypeEPKNS_11TypePackVarEEEaSEOS7_.exit
  call void @llvm.lifetime.end.p0(i64 16, ptr nonnull %3) #29
  ret void

23:                                               ; preds = %.noexc, %6
  %24 = landingpad { ptr, i32 }
          cleanup
  %25 = load i32, ptr %3, align 8, !tbaa !69
  %26 = sext i32 %25 to i64
  %27 = getelementptr inbounds [2 x ptr], ptr @_ZN4Luau7VariantIJPKNS_4TypeEPKNS_11TypePackVarEEE9tableDtorE, i64 0, i64 %26
  %28 = load ptr, ptr %27, align 8, !tbaa !14
  invoke void %28(ptr noundef nonnull %5)
          to label %_ZN4Luau7VariantIJPKNS_4TypeEPKNS_11TypePackVarEEED2Ev.exit4 unwind label %29

29:                                               ; preds = %23
  %30 = landingpad { ptr, i32 }
          catch ptr null
  %31 = extractvalue { ptr, i32 } %30, 0
  call void @__clang_call_terminate(ptr %31) #27
  unreachable

_ZN4Luau7VariantIJPKNS_4TypeEPKNS_11TypePackVarEEED2Ev.exit4: ; preds = %23
  call void @llvm.lifetime.end.p0(i64 16, ptr nonnull %3) #29
  resume { ptr, i32 } %24
}